target datalayout = "e-m:e-p270:32:32-p271:32:32-p272:64:64-i64:64-i128:128-f80:128-n8:16:32:64-S128"
target triple = "x86_64-pc-linux-gnu"

%struct.Abc_Frame_t_ = type { ptr, ptr, ptr, ptr, ptr, ptr, ptr, ptr, ptr, ptr, i32, i32, i32, i32, i32, ptr, float, float, i32, i32, ptr, ptr, ptr, double, double, ptr, ptr, ptr, ptr, ptr, ptr, ptr, ptr, ptr, ptr, ptr, ptr, float, ptr, i32, ptr, ptr, ptr, ptr, ptr, i32, i32, i32, i32, i32, i32, ptr, ptr, ptr, ptr, ptr, ptr, i32, i32, ptr, ptr, ptr, ptr, ptr, ptr, ptr, ptr, ptr, ptr, ptr, ptr, ptr, ptr, ptr, ptr, ptr, ptr, ptr, ptr, ptr, ptr, ptr, ptr, ptr, ptr, ptr, ptr, ptr, ptr }

@s_GlobalFrame = internal global ptr null, align 8

; Function Attrs: nounwind uwtable
define void @Abc_FrameSetManDsd2(ptr noundef %0) #0 {
  %2 = alloca ptr, align 8
  store ptr %0, ptr %2, align 8, !tbaa !55
  %3 = load ptr, ptr @s_GlobalFrame, align 8, !tbaa !3
  %4 = getelementptr inbounds nuw %struct.Abc_Frame_t_, ptr %3, i32 0, i32 28
  %5 = load ptr, ptr %4, align 8, !tbaa !37
  %6 = icmp ne ptr %5, null
  br i1 %6, label %7, label %17

7:                                                ; preds = %1
  %8 = load ptr, ptr @s_GlobalFrame, align 8, !tbaa !3
  %9 = getelementptr inbounds nuw %struct.Abc_Frame_t_, ptr %8, i32 0, i32 28
  %10 = load ptr, ptr %9, align 8, !tbaa !37
  %11 = load ptr, ptr %2, align 8, !tbaa !55
  %12 = icmp ne ptr %10, %11
  br i1 %12, label %13, label %17

13:                                               ; preds = %7
  %14 = load ptr, ptr @s_GlobalFrame, align 8, !tbaa !3
  %15 = getelementptr inbounds nuw %struct.Abc_Frame_t_, ptr %14, i32 0, i32 28
  %16 = load ptr, ptr %15, align 8, !tbaa !37
  call void @If_DsdManFree(ptr noundef %16, i32 noundef 0)
  br label %17

17:                                               ; preds = %13, %7, %1
  %18 = load ptr, ptr %2, align 8, !tbaa !55
  %19 = load ptr, ptr @s_GlobalFrame, align 8, !tbaa !3
  %20 = getelementptr inbounds nuw %struct.Abc_Frame_t_, ptr %19, i32 0, i32 28
  store ptr %18, ptr %20, align 8, !tbaa !37
  ret void
}